target datalayout = "e-m:e-p270:32:32-p271:32:32-p272:64:64-i64:64-i128:128-f80:128-n8:16:32:64-S128"
target triple = "x86_64-unknown-linux-gnu"

%"class.EA::UnitTest::Test" = type { ptr, %"class.eastl::basic_string", ptr, i64, i64, ptr, i8, i64 }
%"class.eastl::basic_string" = type { %"class.eastl::compressed_pair" }
%"class.eastl::compressed_pair" = type { %"class.eastl::compressed_pair_imp" }
%"class.eastl::compressed_pair_imp" = type { %"struct.eastl::basic_string<char>::Layout" }
%"struct.eastl::basic_string<char>::Layout" = type { %union.anon }
%union.anon = type { %"struct.eastl::basic_string<char>::HeapLayout" }
%"struct.eastl::basic_string<char>::HeapLayout" = type { ptr, i64, i64 }
%"struct.eastl::basic_string<char>::SSOLayout" = type { [23 x i8], %"struct.eastl::basic_string<char>::SSOLayout::SSOSize" }
%"struct.eastl::basic_string<char>::SSOLayout::SSOSize" = type { i8 }

@_ZN2EA8UnitTest16gpReportFunctionE = dso_local global ptr null, align 8
@.str.9 = private unnamed_addr constant [2 x i8] c"\0A\00", align 1
@.str.12 = private unnamed_addr constant [3 x i8] c": \00", align 1

; Function Attrs: mustprogress nounwind uwtable
define linkonce_odr dso_local noundef nonnull align 8 dereferenceable(24) ptr @_ZNK5eastl19compressed_pair_impINS_12basic_stringIcNS_9allocatorEE6LayoutES2_Li2EE5firstEv(ptr noundef nonnull align 8 dereferenceable(24) %this) #1 comdat align 2 {
entry:
  %this.addr = alloca ptr, align 8
  store ptr %this, ptr %this.addr, align 8
  %this1 = load ptr, ptr %this.addr, align 8
  %mFirst = getelementptr inbounds %"class.eastl::compressed_pair_imp", ptr %this1, i32 0, i32 0
  ret ptr %mFirst
}

; Function Attrs: mustprogress nounwind uwtable
define linkonce_odr dso_local noundef ptr @_ZNK5eastl12basic_stringIcNS_9allocatorEE6Layout11SSOBeginPtrEv(ptr noundef nonnull align 8 dereferenceable(24) %this) #1 comdat align 2 {
entry:
  %this.addr = alloca ptr, align 8
  store ptr %this, ptr %this.addr, align 8
  %this1 = load ptr, ptr %this.addr, align 8
  %0 = getelementptr inbounds %"struct.eastl::basic_string<char>::Layout", ptr %this1, i32 0, i32 0
  %mData = getelementptr inbounds %"struct.eastl::basic_string<char>::SSOLayout", ptr %0, i32 0, i32 0
  %arraydecay = getelementptr inbounds [23 x i8], ptr %mData, i64 0, i64 0
  ret ptr %arraydecay
}

; Function Attrs: mustprogress nounwind uwtable
define linkonce_odr dso_local noundef ptr @_ZNK5eastl12basic_stringIcNS_9allocatorEE6Layout12HeapBeginPtrEv(ptr noundef nonnull align 8 dereferenceable(24) %this) #1 comdat align 2 {
entry:
  %this.addr = alloca ptr, align 8
  store ptr %this, ptr %this.addr, align 8
  %this1 = load ptr, ptr %this.addr, align 8
  %0 = getelementptr inbounds %"struct.eastl::basic_string<char>::Layout", ptr %this1, i32 0, i32 0
  %mpBegin = getelementptr inbounds %"struct.eastl::basic_string<char>::HeapLayout", ptr %0, i32 0, i32 0
  %1 = load ptr, ptr %mpBegin, align 8
  ret ptr %1
}

; Function Attrs: mustprogress nounwind uwtable
define linkonce_odr dso_local noundef zeroext i1 @_ZNK5eastl12basic_stringIcNS_9allocatorEE6Layout6IsHeapEv(ptr noundef nonnull align 8 dereferenceable(24) %this) #1 comdat align 2 {
entry:
  %this.addr = alloca ptr, align 8
  store ptr %this, ptr %this.addr, align 8
  %this1 = load ptr, ptr %this.addr, align 8
  %0 = getelementptr inbounds %"struct.eastl::basic_string<char>::Layout", ptr %this1, i32 0, i32 0
  %mRemainingSizeField = getelementptr inbounds %"struct.eastl::basic_string<char>::SSOLayout", ptr %0, i32 0, i32 1
  %mnRemainingSize = getelementptr inbounds %"struct.eastl::basic_string<char>::SSOLayout::SSOSize", ptr %mRemainingSizeField, i32 0, i32 0
  %1 = load i8, ptr %mnRemainingSize, align 1
  %conv = sext i8 %1 to i64
  %and = and i64 %conv, 128
  %tobool = icmp ne i64 %and, 0
  %lnot = xor i1 %tobool, true
  %lnot2 = xor i1 %lnot, true
  ret i1 %lnot2
}

; Function Attrs: noreturn nounwind uwtable
define linkonce_odr hidden void @__clang_call_terminate(ptr noundef %0) #10 comdat {
  %2 = call ptr @__cxa_begin_catch(ptr %0) #13
  call void @_ZSt9terminatev() #17
  unreachable
}

; Function Attrs: mustprogress uwtable
define linkonce_odr dso_local noundef nonnull align 8 dereferenceable(24) ptr @_ZNK5eastl15compressed_pairINS_12basic_stringIcNS_9allocatorEE6LayoutES2_E5firstEv(ptr noundef nonnull align 8 dereferenceable(24) %this) #2 comdat align 2 {
entry:
  %this.addr = alloca ptr, align 8
  store ptr %this, ptr %this.addr, align 8
  %this1 = load ptr, ptr %this.addr, align 8
  %call = call noundef nonnull align 8 dereferenceable(24) ptr @_ZNK5eastl19compressed_pair_impINS_12basic_stringIcNS_9allocatorEE6LayoutES2_Li2EE5firstEv(ptr noundef nonnull align 8 dereferenceable(24) %this1)
  ret ptr %call
}

; Function Attrs: mustprogress nounwind uwtable
define linkonce_odr dso_local noundef ptr @_ZNK5eastl12basic_stringIcNS_9allocatorEE6Layout8BeginPtrEv(ptr noundef nonnull align 8 dereferenceable(24) %this) #1 comdat align 2 {
entry:
  %this.addr = alloca ptr, align 8
  store ptr %this, ptr %this.addr, align 8
  %this1 = load ptr, ptr %this.addr, align 8
  %call = call noundef zeroext i1 @_ZNK5eastl12basic_stringIcNS_9allocatorEE6Layout6IsHeapEv(ptr noundef nonnull align 8 dereferenceable(24) %this1) #13
  br i1 %call, label %cond.true, label %cond.false

cond.true:                                        ; preds = %entry
  %call2 = call noundef ptr @_ZNK5eastl12basic_stringIcNS_9allocatorEE6Layout12HeapBeginPtrEv(ptr noundef nonnull align 8 dereferenceable(24) %this1) #13
  br label %cond.end

cond.false:                                       ; preds = %entry
  %call3 = call noundef ptr @_ZNK5eastl12basic_stringIcNS_9allocatorEE6Layout11SSOBeginPtrEv(ptr noundef nonnull align 8 dereferenceable(24) %this1) #13
  br label %cond.end

cond.end:                                         ; preds = %cond.false, %cond.true
  %cond = phi ptr [ %call2, %cond.true ], [ %call3, %cond.false ]
  ret ptr %cond
}

; Function Attrs: mustprogress nounwind uwtable
define linkonce_odr dso_local noundef nonnull align 8 dereferenceable(24) ptr @_ZNK5eastl12basic_stringIcNS_9allocatorEE14internalLayoutEv(ptr noundef nonnull align 8 dereferenceable(24) %this) #1 comdat align 2 personality ptr @__gxx_personality_v0 {
entry:
  %this.addr = alloca ptr, align 8
  store ptr %this, ptr %this.addr, align 8
  %this1 = load ptr, ptr %this.addr, align 8
  %mPair = getelementptr inbounds %"class.eastl::basic_string", ptr %this1, i32 0, i32 0
  %call = invoke noundef nonnull align 8 dereferenceable(24) ptr @_ZNK5eastl15compressed_pairINS_12basic_stringIcNS_9allocatorEE6LayoutES2_E5firstEv(ptr noundef nonnull align 8 dereferenceable(24) %mPair)
          to label %invoke.cont unwind label %terminate.lpad

invoke.cont:                                      ; preds = %entry
  ret ptr %call

terminate.lpad:                                   ; preds = %entry
  %0 = landingpad { ptr, i32 }
          catch ptr null
  %1 = extractvalue { ptr, i32 } %0, 0
  call void @__clang_call_terminate(ptr %1) #17
  unreachable
}

; Function Attrs: mustprogress nounwind uwtable
define linkonce_odr dso_local noundef ptr @_ZNK5eastl12basic_stringIcNS_9allocatorEE5c_strEv(ptr noundef nonnull align 8 dereferenceable(24) %this) #1 comdat align 2 {
entry:
  %this.addr = alloca ptr, align 8
  store ptr %this, ptr %this.addr, align 8
  %this1 = load ptr, ptr %this.addr, align 8
  %call = call noundef nonnull align 8 dereferenceable(24) ptr @_ZNK5eastl12basic_stringIcNS_9allocatorEE14internalLayoutEv(ptr noundef nonnull align 8 dereferenceable(24) %this1) #13
  %call2 = call noundef ptr @_ZNK5eastl12basic_stringIcNS_9allocatorEE6Layout8BeginPtrEv(ptr noundef nonnull align 8 dereferenceable(24) %call) #13
  ret ptr %call2
}

; Function Attrs: mustprogress uwtable
define dso_local noundef zeroext i1 @_ZN2EA8UnitTest4Test6VerifyEbPKc(ptr noundef nonnull align 8 dereferenceable(80) %this, i1 noundef zeroext %bValue, ptr noundef %pMessage) unnamed_addr #2 align 2 {
entry:
  %retval = alloca i1, align 1
  %this.addr = alloca ptr, align 8
  %bValue.addr = alloca i8, align 1
  %pMessage.addr = alloca ptr, align 8
  store ptr %this, ptr %this.addr, align 8
  %frombool = zext i1 %bValue to i8
  store i8 %frombool, ptr %bValue.addr, align 1
  store ptr %pMessage, ptr %pMessage.addr, align 8
  %this1 = load ptr, ptr %this.addr, align 8
  %0 = load i8, ptr %bValue.addr, align 1
  %tobool = trunc i8 %0 to i1
  br i1 %tobool, label %if.end4, label %if.then

if.then:                                          ; preds = %entry
  %mnErrorCount = getelementptr inbounds %"class.EA::UnitTest::Test", ptr %this1, i32 0, i32 4
  %1 = load i64, ptr %mnErrorCount, align 8
  %inc = add i64 %1, 1
  store i64 %inc, ptr %mnErrorCount, align 8
  %2 = load ptr, ptr @_ZN2EA8UnitTest16gpReportFunctionE, align 8
  %tobool2 = icmp ne ptr %2, null
  br i1 %tobool2, label %if.then3, label %if.end

if.then3:                                         ; preds = %if.then
  %3 = load ptr, ptr @_ZN2EA8UnitTest16gpReportFunctionE, align 8
  %msTestName = getelementptr inbounds %"class.EA::UnitTest::Test", ptr %this1, i32 0, i32 1
  %call = call noundef ptr @_ZNK5eastl12basic_stringIcNS_9allocatorEE5c_strEv(ptr noundef nonnull align 8 dereferenceable(24) %msTestName) #13
  call void %3(ptr noundef %call)
  %4 = load ptr, ptr @_ZN2EA8UnitTest16gpReportFunctionE, align 8
  call void %4(ptr noundef @.str.12)
  %5 = load ptr, ptr @_ZN2EA8UnitTest16gpReportFunctionE, align 8
  %6 = load ptr, ptr %pMessage.addr, align 8
  call void %5(ptr noundef %6)
  %7 = load ptr, ptr @_ZN2EA8UnitTest16gpReportFunctionE, align 8
  call void %7(ptr noundef @.str.9)
  br label %if.end

if.end:                                           ; preds = %if.then3, %if.then
  store i1 false, ptr %retval, align 1
  br label %return

if.end4:                                          ; preds = %entry
  %mnSuccessCount = getelementptr inbounds %"class.EA::UnitTest::Test", ptr %this1, i32 0, i32 3
  %8 = load i64, ptr %mnSuccessCount, align 8
  %inc5 = add i64 %8, 1
  store i64 %inc5, ptr %mnSuccessCount, align 8
  store i1 true, ptr %retval, align 1
  br label %return

return:                                           ; preds = %if.end4, %if.end
  %9 = load i1, ptr %retval, align 1
  ret i1 %9
}