; Function Attrs: mustprogress uwtable
define dso_local noundef zeroext i1 @_ZN2EA8UnitTest4Test6VerifyEbPKc(ptr noundef nonnull align 8 dereferenceable(80) %this, i1 noundef returned zeroext %bValue, ptr noundef %pMessage) unnamed_addr #0 align 2 personality ptr @__gxx_personality_v0 {
entry:
  br i1 %bValue, label %if.end4, label %if.then

if.then:                                          ; preds = %entry
  %mnErrorCount = getelementptr inbounds i8, ptr %this, i64 48
  %0 = load i64, ptr %mnErrorCount, align 8
  %inc = add i64 %0, 1
  store i64 %inc, ptr %mnErrorCount, align 8
  %1 = load ptr, ptr @_ZN2EA8UnitTest16gpReportFunctionE, align 8
  %tobool2.not = icmp eq ptr %1, null
  br i1 %tobool2.not, label %return, label %if.then3

if.then3:                                         ; preds = %if.then
  %msTestName = getelementptr inbounds i8, ptr %this, i64 8
  %mRemainingSizeField.i.i.i = getelementptr inbounds i8, ptr %this, i64 31
  %2 = load i8, ptr %mRemainingSizeField.i.i.i, align 1
  %tobool.i.i.i = icmp slt i8 %2, 0
  %3 = load ptr, ptr %msTestName, align 8
  %spec.select.i.i = select i1 %tobool.i.i.i, ptr %3, ptr %msTestName
  tail call void %1(ptr noundef %spec.select.i.i)
  %4 = load ptr, ptr @_ZN2EA8UnitTest16gpReportFunctionE, align 8
  tail call void %4(ptr noundef nonnull @.str.12)
  %5 = load ptr, ptr @_ZN2EA8UnitTest16gpReportFunctionE, align 8
  tail call void %5(ptr noundef %pMessage)
  %6 = load ptr, ptr @_ZN2EA8UnitTest16gpReportFunctionE, align 8
  tail call void %6(ptr noundef nonnull @.str.9)
  br label %return

if.end4:                                          ; preds = %entry
  %mnSuccessCount = getelementptr inbounds i8, ptr %this, i64 40
  %7 = load i64, ptr %mnSuccessCount, align 8
  %inc5 = add i64 %7, 1
  store i64 %inc5, ptr %mnSuccessCount, align 8
  br label %return

return:                                           ; preds = %if.then, %if.then3, %if.end4
  ret i1 %bValue
}